target datalayout = "e-m:e-p270:32:32-p271:32:32-p272:64:64-i64:64-i128:128-f80:128-n8:16:32:64-S128"
target triple = "x86_64-pc-linux-gnu"

%struct._dcerpc_info = type { ptr, i32, i64, i8, i8, i8, i32, i32, i32, i32, i32, i32, i32, i32, ptr, ptr, ptr, ptr, %struct.anon }
%struct.anon = type { i8, ptr, ptr, ptr, i8 }

@.str.3868 = private unnamed_addr constant [18 x i8] c": (No values set)\00", align 1
@.str.3869 = private unnamed_addr constant [26 x i8] c"Unknown bitmap value 0x%x\00", align 1
@mapi_dissect_bitmap_QueryFlags.mapi_QueryFlags_fields = internal constant [3 x ptr] [ptr @hf_mapi_QueryFlags_NoStrings, ptr @hf_mapi_QueryFlags_NoIds, ptr null], align 16
@ett_mapi_QueryFlags = internal global i32 0, align 4
@ett_mapi_QueryNamedProperties_req = internal global i32 0, align 4
@hf_mapi_InputHandleIndex = internal global i32 0, align 4
@hf_mapi_LogonId = internal global i32 0, align 4
@hf_mapi_QueryNamedProperties_guid_guid = internal global i32 0, align 4
@hf_mapi_QueryNamedProperties_req_HasGuid = internal global i32 0, align 4
@hf_mapi_QueryNamedProperties_req_PropertyGuid = internal global i32 0, align 4
@hf_mapi_QueryNamedProperties_req_QueryFlags = internal global i32 0, align 4
@ett_mapi_QueryNamedProperties_guid = internal global i32 0, align 4
@.str.6161 = private unnamed_addr constant [26 x i8] c"QueryNamedProperties_guid\00", align 1

; Function Attrs: null_pointer_is_valid sspstrong uwtable
define internal i32 @mapi_dissect_element_QueryNamedProperties_guid_guid(ptr noundef %0, i32 noundef %1, ptr noundef %2, ptr noundef %3, ptr noundef %4, ptr noundef %5) #0 {
  %7 = alloca ptr, align 8
  %8 = alloca i32, align 4
  %9 = alloca ptr, align 8
  %10 = alloca ptr, align 8
  %11 = alloca ptr, align 8
  %12 = alloca ptr, align 8
  store ptr %0, ptr %7, align 8
  store i32 %1, ptr %8, align 4
  store ptr %2, ptr %9, align 8
  store ptr %3, ptr %10, align 8
  store ptr %4, ptr %11, align 8
  store ptr %5, ptr %12, align 8
  %13 = load ptr, ptr %7, align 8
  %14 = load i32, ptr %8, align 4
  %15 = load ptr, ptr %9, align 8
  %16 = load ptr, ptr %10, align 8
  %17 = load ptr, ptr %11, align 8
  %18 = load ptr, ptr %12, align 8
  %19 = load i32, ptr @hf_mapi_QueryNamedProperties_guid_guid, align 4
  %20 = call i32 @dissect_ndr_uuid_t(ptr noundef %13, i32 noundef %14, ptr noundef %15, ptr noundef %16, ptr noundef %17, ptr noundef %18, i32 noundef %19, ptr noundef null)
  store i32 %20, ptr %8, align 4
  %21 = load i32, ptr %8, align 4
  ret i32 %21
}

; Function Attrs: null_pointer_is_valid sspstrong uwtable
define internal i32 @mapi_dissect_QueryNamedProperties_guid(ptr noundef %0, i32 noundef %1, ptr noundef %2, ptr noundef %3, ptr noundef %4, ptr noundef %5, i32 noundef %6, i32 noundef %7) #0 {
  %9 = alloca ptr, align 8
  %10 = alloca i32, align 4
  %11 = alloca ptr, align 8
  %12 = alloca ptr, align 8
  %13 = alloca ptr, align 8
  %14 = alloca ptr, align 8
  %15 = alloca i32, align 4
  %16 = alloca i32, align 4
  %17 = alloca ptr, align 8
  %18 = alloca ptr, align 8
  %19 = alloca i32, align 4
  %20 = alloca i32, align 4
  store ptr %0, ptr %9, align 8
  store i32 %1, ptr %10, align 4
  store ptr %2, ptr %11, align 8
  store ptr %3, ptr %12, align 8
  store ptr %4, ptr %13, align 8
  store ptr %5, ptr %14, align 8
  store i32 %6, ptr %15, align 4
  store i32 %7, ptr %16, align 4
  call void @llvm.lifetime.start.p0(i64 8, ptr %17) #5
  store ptr null, ptr %17, align 8
  call void @llvm.lifetime.start.p0(i64 8, ptr %18) #5
  store ptr null, ptr %18, align 8
  call void @llvm.lifetime.start.p0(i64 4, ptr %19) #5
  call void @llvm.lifetime.start.p0(i64 4, ptr %20) #5
  %21 = load i32, ptr %16, align 4
  store i32 %21, ptr %20, align 4
  %22 = load i32, ptr %10, align 4
  store i32 %22, ptr %19, align 4
  %23 = load ptr, ptr %12, align 8
  %24 = icmp ne ptr %23, null
  br i1 %24, label %25, label %31

25:                                               ; preds = %8
  %26 = load ptr, ptr %12, align 8
  %27 = load ptr, ptr %9, align 8
  %28 = load i32, ptr %10, align 4
  %29 = load i32, ptr @ett_mapi_QueryNamedProperties_guid, align 4
  %30 = call ptr @proto_tree_add_subtree(ptr noundef %26, ptr noundef %27, i32 noundef %28, i32 noundef -1, i32 noundef %29, ptr noundef %17, ptr noundef @.str.6161)
  store ptr %30, ptr %18, align 8
  br label %31

31:                                               ; preds = %25, %8
  %32 = load i32, ptr %20, align 4
  switch i32 %32, label %41 [
    i32 0, label %41
    i32 1, label %33
  ]

33:                                               ; preds = %31
  %34 = load ptr, ptr %9, align 8
  %35 = load i32, ptr %10, align 4
  %36 = load ptr, ptr %11, align 8
  %37 = load ptr, ptr %18, align 8
  %38 = load ptr, ptr %13, align 8
  %39 = load ptr, ptr %14, align 8
  %40 = call i32 @mapi_dissect_element_QueryNamedProperties_guid_guid(ptr noundef %34, i32 noundef %35, ptr noundef %36, ptr noundef %37, ptr noundef %38, ptr noundef %39)
  store i32 %40, ptr %10, align 4
  br label %41

41:                                               ; preds = %31, %33, %31
  %42 = load ptr, ptr %17, align 8
  %43 = load i32, ptr %10, align 4
  %44 = load i32, ptr %19, align 4
  %45 = sub i32 %43, %44
  call void @proto_item_set_len(ptr noundef %42, i32 noundef %45)
  %46 = load i32, ptr %10, align 4
  call void @llvm.lifetime.end.p0(i64 4, ptr %20) #5
  call void @llvm.lifetime.end.p0(i64 4, ptr %19) #5
  call void @llvm.lifetime.end.p0(i64 8, ptr %18) #5
  call void @llvm.lifetime.end.p0(i64 8, ptr %17) #5
  ret i32 %46
}

; Function Attrs: null_pointer_is_valid sspstrong uwtable
define hidden i32 @mapi_dissect_bitmap_QueryFlags(ptr noundef %0, i32 noundef %1, ptr noundef %2, ptr noundef %3, ptr noundef %4, ptr noundef %5, i32 noundef %6, i32 noundef %7) #0 {
  %9 = alloca ptr, align 8
  %10 = alloca i32, align 4
  %11 = alloca ptr, align 8
  %12 = alloca ptr, align 8
  %13 = alloca ptr, align 8
  %14 = alloca ptr, align 8
  %15 = alloca i32, align 4
  %16 = alloca i32, align 4
  %17 = alloca ptr, align 8
  %18 = alloca i8, align 1
  store ptr %0, ptr %9, align 8
  store i32 %1, ptr %10, align 4
  store ptr %2, ptr %11, align 8
  store ptr %3, ptr %12, align 8
  store ptr %4, ptr %13, align 8
  store ptr %5, ptr %14, align 8
  store i32 %6, ptr %15, align 4
  store i32 %7, ptr %16, align 4
  call void @llvm.lifetime.start.p0(i64 8, ptr %17) #5
  call void @llvm.lifetime.start.p0(i64 1, ptr %18) #5
  %19 = load ptr, ptr %12, align 8
  %20 = load ptr, ptr %9, align 8
  %21 = load i32, ptr %10, align 4
  %22 = load i32, ptr %15, align 4
  %23 = load i32, ptr @ett_mapi_QueryFlags, align 4
  %24 = load ptr, ptr %14, align 8
  %25 = getelementptr i8, ptr %24, i64 0
  %26 = load i8, ptr %25, align 1
  %27 = zext i8 %26 to i32
  %28 = and i32 %27, 16
  %29 = icmp ne i32 %28, 0
  %30 = select i1 %29, i32 -2147483648, i32 0
  %31 = call ptr @proto_tree_add_bitmask_with_flags(ptr noundef %19, ptr noundef %20, i32 noundef %21, i32 noundef %22, i32 noundef %23, ptr noundef @mapi_dissect_bitmap_QueryFlags.mapi_QueryFlags_fields, i32 noundef %30, i32 noundef 4)
  store ptr %31, ptr %17, align 8
  %32 = load ptr, ptr %9, align 8
  %33 = load i32, ptr %10, align 4
  %34 = load ptr, ptr %11, align 8
  %35 = load ptr, ptr %12, align 8
  %36 = load ptr, ptr %13, align 8
  %37 = load ptr, ptr %14, align 8
  %38 = call i32 @dissect_ndr_uint8(ptr noundef %32, i32 noundef %33, ptr noundef %34, ptr noundef %35, ptr noundef %36, ptr noundef %37, i32 noundef -1, ptr noundef %18)
  store i32 %38, ptr %10, align 4
  %39 = load i8, ptr %18, align 1
  %40 = icmp ne i8 %39, 0
  br i1 %40, label %43, label %41

41:                                               ; preds = %8
  %42 = load ptr, ptr %17, align 8
  call void (ptr, ptr, ...) @proto_item_append_text(ptr noundef %42, ptr noundef @.str.3868)
  br label %43

43:                                               ; preds = %41, %8
  %44 = load i8, ptr %18, align 1
  %45 = zext i8 %44 to i32
  %46 = and i32 %45, -4
  %47 = icmp ne i32 %46, 0
  br i1 %47, label %48, label %56

48:                                               ; preds = %43
  %49 = load i8, ptr %18, align 1
  %50 = zext i8 %49 to i32
  %51 = and i32 %50, -4
  %52 = trunc i32 %51 to i8
  store i8 %52, ptr %18, align 1
  %53 = load ptr, ptr %17, align 8
  %54 = load i8, ptr %18, align 1
  %55 = zext i8 %54 to i32
  call void (ptr, ptr, ...) @proto_item_append_text(ptr noundef %53, ptr noundef @.str.3869, i32 noundef %55)
  br label %56

56:                                               ; preds = %48, %43
  %57 = load i32, ptr %10, align 4
  call void @llvm.lifetime.end.p0(i64 1, ptr %18) #5
  call void @llvm.lifetime.end.p0(i64 8, ptr %17) #5
  ret i32 %57
}

; Function Attrs: null_pointer_is_valid sspstrong uwtable
define internal i32 @mapi_dissect_element_QueryNamedProperties_req_PropertyGuid(ptr noundef %0, i32 noundef %1, ptr noundef %2, ptr noundef %3, ptr noundef %4, ptr noundef %5, ptr noundef %6) #0 {
  %8 = alloca ptr, align 8
  %9 = alloca i32, align 4
  %10 = alloca ptr, align 8
  %11 = alloca ptr, align 8
  %12 = alloca ptr, align 8
  %13 = alloca ptr, align 8
  %14 = alloca ptr, align 8
  store ptr %0, ptr %8, align 8
  store i32 %1, ptr %9, align 4
  store ptr %2, ptr %10, align 8
  store ptr %3, ptr %11, align 8
  store ptr %4, ptr %12, align 8
  store ptr %5, ptr %13, align 8
  store ptr %6, ptr %14, align 8
  %15 = load ptr, ptr %8, align 8
  %16 = load i32, ptr %9, align 4
  %17 = load ptr, ptr %10, align 8
  %18 = load ptr, ptr %11, align 8
  %19 = load ptr, ptr %12, align 8
  %20 = load ptr, ptr %13, align 8
  %21 = load i32, ptr @hf_mapi_QueryNamedProperties_req_PropertyGuid, align 4
  %22 = load ptr, ptr %14, align 8
  %23 = load i8, ptr %22, align 1
  %24 = zext i8 %23 to i32
  %25 = call i32 @mapi_dissect_QueryNamedProperties_guid(ptr noundef %15, i32 noundef %16, ptr noundef %17, ptr noundef %18, ptr noundef %19, ptr noundef %20, i32 noundef %21, i32 noundef %24)
  store i32 %25, ptr %9, align 4
  %26 = load i32, ptr %9, align 4
  ret i32 %26
}

; Function Attrs: null_pointer_is_valid sspstrong uwtable
define internal i32 @mapi_dissect_element_QueryNamedProperties_req_HasGuid(ptr noundef %0, i32 noundef %1, ptr noundef %2, ptr noundef %3, ptr noundef %4, ptr noundef %5, ptr noundef %6) #0 {
  %8 = alloca ptr, align 8
  %9 = alloca i32, align 4
  %10 = alloca ptr, align 8
  %11 = alloca ptr, align 8
  %12 = alloca ptr, align 8
  %13 = alloca ptr, align 8
  %14 = alloca ptr, align 8
  store ptr %0, ptr %8, align 8
  store i32 %1, ptr %9, align 4
  store ptr %2, ptr %10, align 8
  store ptr %3, ptr %11, align 8
  store ptr %4, ptr %12, align 8
  store ptr %5, ptr %13, align 8
  store ptr %6, ptr %14, align 8
  %15 = load ptr, ptr %8, align 8
  %16 = load i32, ptr %9, align 4
  %17 = load ptr, ptr %10, align 8
  %18 = load ptr, ptr %11, align 8
  %19 = load ptr, ptr %12, align 8
  %20 = load ptr, ptr %13, align 8
  %21 = load i32, ptr @hf_mapi_QueryNamedProperties_req_HasGuid, align 4
  %22 = load ptr, ptr %14, align 8
  %23 = load i8, ptr %22, align 1
  %24 = zext i8 %23 to i32
  %25 = call i32 @PIDL_dissect_uint8(ptr noundef %15, i32 noundef %16, ptr noundef %17, ptr noundef %18, ptr noundef %19, ptr noundef %20, i32 noundef %21, i32 noundef %24)
  store i32 %25, ptr %9, align 4
  %26 = load i32, ptr %9, align 4
  ret i32 %26
}

; Function Attrs: null_pointer_is_valid sspstrong uwtable
define internal i32 @mapi_dissect_element_QueryNamedProperties_req_QueryFlags(ptr noundef %0, i32 noundef %1, ptr noundef %2, ptr noundef %3, ptr noundef %4, ptr noundef %5) #0 {
  %7 = alloca ptr, align 8
  %8 = alloca i32, align 4
  %9 = alloca ptr, align 8
  %10 = alloca ptr, align 8
  %11 = alloca ptr, align 8
  %12 = alloca ptr, align 8
  store ptr %0, ptr %7, align 8
  store i32 %1, ptr %8, align 4
  store ptr %2, ptr %9, align 8
  store ptr %3, ptr %10, align 8
  store ptr %4, ptr %11, align 8
  store ptr %5, ptr %12, align 8
  %13 = load ptr, ptr %7, align 8
  %14 = load i32, ptr %8, align 4
  %15 = load ptr, ptr %9, align 8
  %16 = load ptr, ptr %10, align 8
  %17 = load ptr, ptr %11, align 8
  %18 = load ptr, ptr %12, align 8
  %19 = load i32, ptr @hf_mapi_QueryNamedProperties_req_QueryFlags, align 4
  %20 = call i32 @mapi_dissect_bitmap_QueryFlags(ptr noundef %13, i32 noundef %14, ptr noundef %15, ptr noundef %16, ptr noundef %17, ptr noundef %18, i32 noundef %19, i32 noundef 0)
  store i32 %20, ptr %8, align 4
  %21 = load i32, ptr %8, align 4
  ret i32 %21
}

; Function Attrs: null_pointer_is_valid sspstrong uwtable
define internal i32 @mapi_dissect_element_QueryNamedProperties_req_InputHandleIndex(ptr noundef %0, i32 noundef %1, ptr noundef %2, ptr noundef %3, ptr noundef %4, ptr noundef %5) #0 {
  %7 = alloca ptr, align 8
  %8 = alloca i32, align 4
  %9 = alloca ptr, align 8
  %10 = alloca ptr, align 8
  %11 = alloca ptr, align 8
  %12 = alloca ptr, align 8
  store ptr %0, ptr %7, align 8
  store i32 %1, ptr %8, align 4
  store ptr %2, ptr %9, align 8
  store ptr %3, ptr %10, align 8
  store ptr %4, ptr %11, align 8
  store ptr %5, ptr %12, align 8
  %13 = load ptr, ptr %7, align 8
  %14 = load i32, ptr %8, align 4
  %15 = load ptr, ptr %9, align 8
  %16 = load ptr, ptr %10, align 8
  %17 = load ptr, ptr %11, align 8
  %18 = load ptr, ptr %12, align 8
  %19 = load i32, ptr @hf_mapi_InputHandleIndex, align 4
  %20 = call i32 @PIDL_dissect_uint8(ptr noundef %13, i32 noundef %14, ptr noundef %15, ptr noundef %16, ptr noundef %17, ptr noundef %18, i32 noundef %19, i32 noundef 0)
  store i32 %20, ptr %8, align 4
  %21 = load i32, ptr %8, align 4
  ret i32 %21
}

; Function Attrs: null_pointer_is_valid sspstrong uwtable
define internal i32 @mapi_dissect_element_QueryNamedProperties_req_LogonId(ptr noundef %0, i32 noundef %1, ptr noundef %2, ptr noundef %3, ptr noundef %4, ptr noundef %5) #0 {
  %7 = alloca ptr, align 8
  %8 = alloca i32, align 4
  %9 = alloca ptr, align 8
  %10 = alloca ptr, align 8
  %11 = alloca ptr, align 8
  %12 = alloca ptr, align 8
  store ptr %0, ptr %7, align 8
  store i32 %1, ptr %8, align 4
  store ptr %2, ptr %9, align 8
  store ptr %3, ptr %10, align 8
  store ptr %4, ptr %11, align 8
  store ptr %5, ptr %12, align 8
  %13 = load ptr, ptr %7, align 8
  %14 = load i32, ptr %8, align 4
  %15 = load ptr, ptr %9, align 8
  %16 = load ptr, ptr %10, align 8
  %17 = load ptr, ptr %11, align 8
  %18 = load ptr, ptr %12, align 8
  %19 = load i32, ptr @hf_mapi_LogonId, align 4
  %20 = call i32 @PIDL_dissect_uint8(ptr noundef %13, i32 noundef %14, ptr noundef %15, ptr noundef %16, ptr noundef %17, ptr noundef %18, i32 noundef %19, i32 noundef 0)
  store i32 %20, ptr %8, align 4
  %21 = load i32, ptr %8, align 4
  ret i32 %21
}

; Function Attrs: null_pointer_is_valid sspstrong uwtable
define hidden i32 @mapi_dissect_struct_QueryNamedProperties_req(ptr noundef %0, i32 noundef %1, ptr noundef %2, ptr noundef %3, ptr noundef %4, ptr noundef %5, i32 noundef %6, i32 noundef %7) #0 {
  %9 = alloca ptr, align 8
  %10 = alloca i32, align 4
  %11 = alloca ptr, align 8
  %12 = alloca ptr, align 8
  %13 = alloca ptr, align 8
  %14 = alloca ptr, align 8
  %15 = alloca i32, align 4
  %16 = alloca i32, align 4
  %17 = alloca i8, align 1
  %18 = alloca ptr, align 8
  %19 = alloca ptr, align 8
  %20 = alloca i8, align 1
  %21 = alloca i32, align 4
  store ptr %0, ptr %9, align 8
  store i32 %1, ptr %10, align 4
  store ptr %2, ptr %11, align 8
  store ptr %3, ptr %12, align 8
  store ptr %4, ptr %13, align 8
  store ptr %5, ptr %14, align 8
  store i32 %6, ptr %15, align 4
  store i32 %7, ptr %16, align 4
  call void @llvm.lifetime.start.p0(i64 1, ptr %17) #5
  store i8 0, ptr %17, align 1
  call void @llvm.lifetime.start.p0(i64 8, ptr %18) #5
  store ptr null, ptr %18, align 8
  call void @llvm.lifetime.start.p0(i64 8, ptr %19) #5
  store ptr null, ptr %19, align 8
  call void @llvm.lifetime.start.p0(i64 1, ptr %20) #5
  %22 = load ptr, ptr %13, align 8
  %23 = getelementptr inbounds nuw %struct._dcerpc_info, ptr %22, i32 0, i32 5
  %24 = load i8, ptr %23, align 2, !range !6, !noundef !7
  %25 = trunc i8 %24 to i1
  %26 = zext i1 %25 to i8
  store i8 %26, ptr %20, align 1
  call void @llvm.lifetime.start.p0(i64 4, ptr %21) #5
  %27 = load ptr, ptr %13, align 8
  %28 = getelementptr inbounds nuw %struct._dcerpc_info, ptr %27, i32 0, i32 5
  store i8 1, ptr %28, align 2
  %29 = load i32, ptr %10, align 4
  store i32 %29, ptr %21, align 4
  %30 = load ptr, ptr %12, align 8
  %31 = icmp ne ptr %30, null
  br i1 %31, label %32, label %41

32:                                               ; preds = %8
  %33 = load ptr, ptr %12, align 8
  %34 = load i32, ptr %15, align 4
  %35 = load ptr, ptr %9, align 8
  %36 = load i32, ptr %10, align 4
  %37 = call ptr @proto_tree_add_item(ptr noundef %33, i32 noundef %34, ptr noundef %35, i32 noundef %36, i32 noundef -1, i32 noundef 0)
  store ptr %37, ptr %18, align 8
  %38 = load ptr, ptr %18, align 8
  %39 = load i32, ptr @ett_mapi_QueryNamedProperties_req, align 4
  %40 = call ptr @proto_item_add_subtree(ptr noundef %38, i32 noundef %39)
  store ptr %40, ptr %19, align 8
  br label %41

41:                                               ; preds = %32, %8
  %42 = load ptr, ptr %9, align 8
  %43 = load i32, ptr %10, align 4
  %44 = load ptr, ptr %11, align 8
  %45 = load ptr, ptr %19, align 8
  %46 = load ptr, ptr %13, align 8
  %47 = load ptr, ptr %14, align 8
  %48 = call i32 @mapi_dissect_element_QueryNamedProperties_req_LogonId(ptr noundef %42, i32 noundef %43, ptr noundef %44, ptr noundef %45, ptr noundef %46, ptr noundef %47)
  store i32 %48, ptr %10, align 4
  %49 = load ptr, ptr %9, align 8
  %50 = load i32, ptr %10, align 4
  %51 = load ptr, ptr %11, align 8
  %52 = load ptr, ptr %19, align 8
  %53 = load ptr, ptr %13, align 8
  %54 = load ptr, ptr %14, align 8
  %55 = call i32 @mapi_dissect_element_QueryNamedProperties_req_InputHandleIndex(ptr noundef %49, i32 noundef %50, ptr noundef %51, ptr noundef %52, ptr noundef %53, ptr noundef %54)
  store i32 %55, ptr %10, align 4
  %56 = load ptr, ptr %9, align 8
  %57 = load i32, ptr %10, align 4
  %58 = load ptr, ptr %11, align 8
  %59 = load ptr, ptr %19, align 8
  %60 = load ptr, ptr %13, align 8
  %61 = load ptr, ptr %14, align 8
  %62 = call i32 @mapi_dissect_element_QueryNamedProperties_req_QueryFlags(ptr noundef %56, i32 noundef %57, ptr noundef %58, ptr noundef %59, ptr noundef %60, ptr noundef %61)
  store i32 %62, ptr %10, align 4
  %63 = load ptr, ptr %9, align 8
  %64 = load i32, ptr %10, align 4
  %65 = load ptr, ptr %11, align 8
  %66 = load ptr, ptr %19, align 8
  %67 = load ptr, ptr %13, align 8
  %68 = load ptr, ptr %14, align 8
  %69 = call i32 @mapi_dissect_element_QueryNamedProperties_req_HasGuid(ptr noundef %63, i32 noundef %64, ptr noundef %65, ptr noundef %66, ptr noundef %67, ptr noundef %68, ptr noundef %17)
  store i32 %69, ptr %10, align 4
  %70 = load ptr, ptr %9, align 8
  %71 = load i32, ptr %10, align 4
  %72 = load ptr, ptr %11, align 8
  %73 = load ptr, ptr %19, align 8
  %74 = load ptr, ptr %13, align 8
  %75 = load ptr, ptr %14, align 8
  %76 = call i32 @mapi_dissect_element_QueryNamedProperties_req_PropertyGuid(ptr noundef %70, i32 noundef %71, ptr noundef %72, ptr noundef %73, ptr noundef %74, ptr noundef %75, ptr noundef %17)
  store i32 %76, ptr %10, align 4
  %77 = load ptr, ptr %18, align 8
  %78 = load i32, ptr %10, align 4
  %79 = load i32, ptr %21, align 4
  %80 = sub i32 %78, %79
  call void @proto_item_set_len(ptr noundef %77, i32 noundef %80)
  %81 = load i8, ptr %20, align 1, !range !6, !noundef !7
  %82 = trunc i8 %81 to i1
  %83 = load ptr, ptr %13, align 8
  %84 = getelementptr inbounds nuw %struct._dcerpc_info, ptr %83, i32 0, i32 5
  %85 = zext i1 %82 to i8
  store i8 %85, ptr %84, align 2
  %86 = load i32, ptr %10, align 4
  call void @llvm.lifetime.end.p0(i64 4, ptr %21) #5
  call void @llvm.lifetime.end.p0(i64 1, ptr %20) #5
  call void @llvm.lifetime.end.p0(i64 8, ptr %19) #5
  call void @llvm.lifetime.end.p0(i64 8, ptr %18) #5
  call void @llvm.lifetime.end.p0(i64 1, ptr %17) #5
  ret i32 %86
}