; Function Attrs: null_pointer_is_valid sspstrong uwtable
define hidden i32 @mapi_dissect_struct_QueryNamedProperties_req(ptr noundef %0, i32 noundef %1, ptr noundef %2, ptr noundef %3, ptr noundef %4, ptr noundef %5, i32 noundef %6, i32 %7) local_unnamed_addr #0 {
  %9 = alloca ptr, align 8
  %10 = alloca i8, align 1
  %11 = getelementptr inbounds nuw i8, ptr %4, i64 26
  %12 = load i8, ptr %11, align 2, !range !9, !noundef !10
  store i8 1, ptr %11, align 2
  %.not = icmp eq ptr %3, null
  br i1 %.not, label %17, label %13

13:                                               ; preds = %8
  %14 = tail call ptr @proto_tree_add_item(ptr noundef nonnull %3, i32 noundef %6, ptr noundef %0, i32 noundef %1, i32 noundef -1, i32 noundef 0)
  %15 = load i32, ptr @ett_mapi_QueryNamedProperties_req, align 4
  %16 = tail call ptr @proto_item_add_subtree(ptr noundef %14, i32 noundef %15)
  br label %17

17:                                               ; preds = %13, %8
  %.044 = phi ptr [ %16, %13 ], [ null, %8 ]
  %.0 = phi ptr [ %14, %13 ], [ null, %8 ]
  %18 = load i32, ptr @hf_mapi_LogonId, align 4
  %19 = tail call i32 @PIDL_dissect_uint8(ptr noundef %0, i32 noundef %1, ptr noundef %2, ptr noundef %.044, ptr noundef %4, ptr noundef %5, i32 noundef %18, i32 noundef 0)
  %20 = load i32, ptr @hf_mapi_InputHandleIndex, align 4
  %21 = tail call i32 @PIDL_dissect_uint8(ptr noundef %0, i32 noundef %19, ptr noundef %2, ptr noundef %.044, ptr noundef %4, ptr noundef %5, i32 noundef %20, i32 noundef 0)
  %22 = load i32, ptr @hf_mapi_QueryNamedProperties_req_QueryFlags, align 4
  call void @llvm.lifetime.start.p0(i64 1, ptr nonnull %10) #6
  %23 = load i32, ptr @ett_mapi_QueryFlags, align 4
  %24 = load i8, ptr %5, align 1
  %25 = and i8 %24, 16
  %26 = zext nneg i8 %25 to i32
  %27 = shl nuw i32 %26, 27
  %28 = tail call ptr @proto_tree_add_bitmask_with_flags(ptr noundef %.044, ptr noundef %0, i32 noundef %21, i32 noundef %22, i32 noundef %23, ptr noundef nonnull @mapi_dissect_bitmap_QueryFlags.mapi_QueryFlags_fields, i32 noundef %27, i32 noundef 4)
  %29 = call i32 @dissect_ndr_uint8(ptr noundef %0, i32 noundef %21, ptr noundef %2, ptr noundef %.044, ptr noundef %4, ptr noundef %5, i32 noundef -1, ptr noundef nonnull %10)
  %30 = load i8, ptr %10, align 1
  %.not.i.i = icmp eq i8 %30, 0
  br i1 %.not.i.i, label %31, label %32

31:                                               ; preds = %17
  call void (ptr, ptr, ...) @proto_item_append_text(ptr noundef %28, ptr noundef nonnull @.str.3868)
  %.pre.i.i = load i8, ptr %10, align 1
  br label %32

32:                                               ; preds = %31, %17
  %33 = phi i8 [ %.pre.i.i, %31 ], [ %30, %17 ]
  %34 = and i8 %33, -4
  %.not13.i.i = icmp eq i8 %34, 0
  br i1 %.not13.i.i, label %mapi_dissect_element_QueryNamedProperties_req_QueryFlags.exit, label %35

35:                                               ; preds = %32
  store i8 %34, ptr %10, align 1
  %36 = zext i8 %34 to i32
  call void (ptr, ptr, ...) @proto_item_append_text(ptr noundef %28, ptr noundef nonnull @.str.3869, i32 noundef %36)
  br label %mapi_dissect_element_QueryNamedProperties_req_QueryFlags.exit

mapi_dissect_element_QueryNamedProperties_req_QueryFlags.exit: ; preds = %32, %35
  call void @llvm.lifetime.end.p0(i64 1, ptr nonnull %10) #6
  %37 = load i32, ptr @hf_mapi_QueryNamedProperties_req_HasGuid, align 4
  %38 = call i32 @PIDL_dissect_uint8(ptr noundef %0, i32 noundef %29, ptr noundef %2, ptr noundef %.044, ptr noundef %4, ptr noundef %5, i32 noundef %37, i32 noundef 0)
  call void @llvm.lifetime.start.p0(i64 8, ptr nonnull %9) #6
  store ptr null, ptr %9, align 8
  %.not.i.i47 = icmp eq ptr %.044, null
  br i1 %.not.i.i47, label %mapi_dissect_element_QueryNamedProperties_req_PropertyGuid.exit, label %39

39:                                               ; preds = %mapi_dissect_element_QueryNamedProperties_req_QueryFlags.exit
  %40 = load i32, ptr @ett_mapi_QueryNamedProperties_guid, align 4
  %41 = call ptr @proto_tree_add_subtree(ptr noundef nonnull %.044, ptr noundef %0, i32 noundef %38, i32 noundef -1, i32 noundef %40, ptr noundef nonnull %9, ptr noundef nonnull @.str.6161)
  %.pre = load ptr, ptr %9, align 8
  br label %mapi_dissect_element_QueryNamedProperties_req_PropertyGuid.exit

mapi_dissect_element_QueryNamedProperties_req_PropertyGuid.exit: ; preds = %mapi_dissect_element_QueryNamedProperties_req_QueryFlags.exit, %39
  %42 = phi ptr [ null, %mapi_dissect_element_QueryNamedProperties_req_QueryFlags.exit ], [ %.pre, %39 ]
  call void @proto_item_set_len(ptr noundef %42, i32 noundef 0)
  call void @llvm.lifetime.end.p0(i64 8, ptr nonnull %9) #6
  %43 = sub i32 %38, %1
  call void @proto_item_set_len(ptr noundef %.0, i32 noundef %43)
  store i8 %12, ptr %11, align 2
  ret i32 %38
}